target datalayout = "e-m:e-p270:32:32-p271:32:32-p272:64:64-i64:64-i128:128-f80:128-n8:16:32:64-S128"
target triple = "x86_64-pc-linux-gnu"

%struct.AVRational = type { i32, i32 }
%struct.V4L2Context = type { ptr, i32, i32, i32, %struct.v4l2_format, i32, i32, %struct.AVRational, ptr, i32, i32, i32 }
%struct.v4l2_format = type { i32, %union.anon }
%union.anon = type { %struct.v4l2_window, [144 x i8] }
%struct.v4l2_window = type { %struct.v4l2_rect, i32, i32, ptr, i32, ptr, i8 }
%struct.v4l2_rect = type { i32, i32, i32, i32 }
%struct.V4L2m2mContext = type { [4096 x i8], i32, %struct.V4L2Context, %struct.V4L2Context, ptr, %union.sem_t, i32, i32, i32, %struct.AVPacket, ptr, ptr, ptr }
%union.sem_t = type { i64, [24 x i8] }
%struct.AVPacket = type { ptr, i64, i64, ptr, i32, i32, i32, ptr, i32, i64, i64, ptr, ptr, %struct.AVRational }
%struct.v4l2_encoder_cmd = type { i32, i32, %union.anon.5 }
%union.anon.5 = type { %struct.anon }
%struct.anon = type { [8 x i32] }
%struct.V4L2Buffer = type { ptr, ptr, i32, [8 x %struct.V4L2Plane_info], i32, %struct.v4l2_buffer, [8 x %struct.v4l2_plane], i32, i32 }
%struct.V4L2Plane_info = type { i32, ptr, i64 }
%struct.v4l2_buffer = type { i32, i32, i32, i32, i32, %struct.timeval, %struct.v4l2_timecode, i32, i32, %union.anon.2, i32, i32, %union.anon.3 }
%struct.timeval = type { i64, i64 }
%struct.v4l2_timecode = type { i32, i32, i8, i8, i8, i8, [4 x i8] }
%union.anon.2 = type { i64 }
%union.anon.3 = type { i32 }
%struct.v4l2_plane = type { i32, i32, %union.anon.4, i32, [11 x i32] }
%union.anon.4 = type { i64 }

@.str = private unnamed_addr constant [16 x i8] c"%s stop_encode\0A\00", align 1

; Function Attrs: nounwind uwtable
define i32 @ff_v4l2_context_set_status(ptr noundef %0, i32 noundef %1) #0 {
  %3 = alloca i32, align 4
  %4 = alloca ptr, align 8
  %5 = alloca i32, align 4
  %6 = alloca i32, align 4
  %7 = alloca i32, align 4
  %8 = alloca i32, align 4
  store ptr %0, ptr %4, align 8, !tbaa !4
  store i32 %1, ptr %5, align 4, !tbaa !9
  call void @llvm.lifetime.start.p0(i64 4, ptr %6) #8
  %9 = load ptr, ptr %4, align 8, !tbaa !4
  %10 = getelementptr inbounds nuw %struct.V4L2Context, ptr %9, i32 0, i32 1
  %11 = load i32, ptr %10, align 8, !tbaa !11
  store i32 %11, ptr %6, align 4, !tbaa !9
  call void @llvm.lifetime.start.p0(i64 4, ptr %7) #8
  %12 = load ptr, ptr %4, align 8, !tbaa !4
  %13 = call ptr @ctx_to_m2mctx(ptr noundef %12)
  %14 = getelementptr inbounds nuw %struct.V4L2m2mContext, ptr %13, i32 0, i32 1
  %15 = load i32, ptr %14, align 8, !tbaa !17
  %16 = load i32, ptr %5, align 4, !tbaa !9
  %17 = zext i32 %16 to i64
  %18 = call i32 (i32, i64, ...) @ioctl(i32 noundef %15, i64 noundef %17, ptr noundef %6) #8
  store i32 %18, ptr %7, align 4, !tbaa !9
  %19 = load i32, ptr %7, align 4, !tbaa !9
  %20 = icmp slt i32 %19, 0
  br i1 %20, label %21, label %25

21:                                               ; preds = %2
  %22 = call ptr @__errno_location() #9
  %23 = load i32, ptr %22, align 4, !tbaa !9
  %24 = sub nsw i32 0, %23
  store i32 %24, ptr %3, align 4
  store i32 1, ptr %8, align 4
  br label %32

25:                                               ; preds = %2
  %26 = load i32, ptr %5, align 4, !tbaa !9
  %27 = zext i32 %26 to i64
  %28 = icmp eq i64 %27, 1074026002
  %29 = zext i1 %28 to i32
  %30 = load ptr, ptr %4, align 8, !tbaa !4
  %31 = getelementptr inbounds nuw %struct.V4L2Context, ptr %30, i32 0, i32 10
  store i32 %29, ptr %31, align 4, !tbaa !26
  store i32 0, ptr %3, align 4
  store i32 1, ptr %8, align 4
  br label %32

32:                                               ; preds = %25, %21
  call void @llvm.lifetime.end.p0(i64 4, ptr %7) #8
  call void @llvm.lifetime.end.p0(i64 4, ptr %6) #8
  %33 = load i32, ptr %3, align 4
  ret i32 %33
}

; Function Attrs: nounwind uwtable
define internal ptr @v4l2_getfree_v4l2buf(ptr noundef %0) #0 {
  %2 = alloca ptr, align 8
  %3 = alloca ptr, align 8
  %4 = alloca i32, align 4
  %5 = alloca i32, align 4
  %6 = alloca i32, align 4
  store ptr %0, ptr %3, align 8, !tbaa !4
  call void @llvm.lifetime.start.p0(i64 4, ptr %4) #8
  store i32 0, ptr %4, align 4, !tbaa !9
  call void @llvm.lifetime.start.p0(i64 4, ptr %5) #8
  %7 = load ptr, ptr %3, align 8, !tbaa !4
  %8 = getelementptr inbounds nuw %struct.V4L2Context, ptr %7, i32 0, i32 1
  %9 = load i32, ptr %8, align 8, !tbaa !11
  %10 = icmp eq i32 %9, 2
  br i1 %10, label %46, label %11

11:                                               ; preds = %1
  %12 = load ptr, ptr %3, align 8, !tbaa !4
  %13 = getelementptr inbounds nuw %struct.V4L2Context, ptr %12, i32 0, i32 1
  %14 = load i32, ptr %13, align 8, !tbaa !11
  %15 = icmp eq i32 %14, 10
  br i1 %15, label %46, label %16

16:                                               ; preds = %11
  %17 = load ptr, ptr %3, align 8, !tbaa !4
  %18 = getelementptr inbounds nuw %struct.V4L2Context, ptr %17, i32 0, i32 1
  %19 = load i32, ptr %18, align 8, !tbaa !11
  %20 = icmp eq i32 %19, 3
  br i1 %20, label %46, label %21

21:                                               ; preds = %16
  %22 = load ptr, ptr %3, align 8, !tbaa !4
  %23 = getelementptr inbounds nuw %struct.V4L2Context, ptr %22, i32 0, i32 1
  %24 = load i32, ptr %23, align 8, !tbaa !11
  %25 = icmp eq i32 %24, 8
  br i1 %25, label %46, label %26

26:                                               ; preds = %21
  %27 = load ptr, ptr %3, align 8, !tbaa !4
  %28 = getelementptr inbounds nuw %struct.V4L2Context, ptr %27, i32 0, i32 1
  %29 = load i32, ptr %28, align 8, !tbaa !11
  %30 = icmp eq i32 %29, 5
  br i1 %30, label %46, label %31

31:                                               ; preds = %26
  %32 = load ptr, ptr %3, align 8, !tbaa !4
  %33 = getelementptr inbounds nuw %struct.V4L2Context, ptr %32, i32 0, i32 1
  %34 = load i32, ptr %33, align 8, !tbaa !11
  %35 = icmp eq i32 %34, 7
  br i1 %35, label %46, label %36

36:                                               ; preds = %31
  %37 = load ptr, ptr %3, align 8, !tbaa !4
  %38 = getelementptr inbounds nuw %struct.V4L2Context, ptr %37, i32 0, i32 1
  %39 = load i32, ptr %38, align 8, !tbaa !11
  %40 = icmp eq i32 %39, 12
  br i1 %40, label %46, label %41

41:                                               ; preds = %36
  %42 = load ptr, ptr %3, align 8, !tbaa !4
  %43 = getelementptr inbounds nuw %struct.V4L2Context, ptr %42, i32 0, i32 1
  %44 = load i32, ptr %43, align 8, !tbaa !11
  %45 = icmp eq i32 %44, 14
  br i1 %45, label %46, label %54

46:                                               ; preds = %41, %36, %31, %26, %21, %16, %11, %1
  br label %47

47:                                               ; preds = %48, %46
  br label %48

48:                                               ; preds = %47
  %49 = load ptr, ptr %3, align 8, !tbaa !4
  %50 = load i32, ptr %4, align 4, !tbaa !9
  %51 = call ptr @v4l2_dequeue_v4l2buf(ptr noundef %49, i32 noundef %50)
  %52 = icmp ne ptr %51, null
  br i1 %52, label %47, label %53, !llvm.loop !33

53:                                               ; preds = %48
  br label %54

54:                                               ; preds = %53, %41
  store i32 0, ptr %5, align 4, !tbaa !9
  br label %55

55:                                               ; preds = %79, %54
  %56 = load i32, ptr %5, align 4, !tbaa !9
  %57 = load ptr, ptr %3, align 8, !tbaa !4
  %58 = getelementptr inbounds nuw %struct.V4L2Context, ptr %57, i32 0, i32 9
  %59 = load i32, ptr %58, align 8, !tbaa !35
  %60 = icmp slt i32 %56, %59
  br i1 %60, label %61, label %82

61:                                               ; preds = %55
  %62 = load ptr, ptr %3, align 8, !tbaa !4
  %63 = getelementptr inbounds nuw %struct.V4L2Context, ptr %62, i32 0, i32 8
  %64 = load ptr, ptr %63, align 8, !tbaa !36
  %65 = load i32, ptr %5, align 4, !tbaa !9
  %66 = sext i32 %65 to i64
  %67 = getelementptr inbounds %struct.V4L2Buffer, ptr %64, i64 %66
  %68 = getelementptr inbounds nuw %struct.V4L2Buffer, ptr %67, i32 0, i32 8
  %69 = load i32, ptr %68, align 4, !tbaa !37
  %70 = icmp eq i32 %69, 0
  br i1 %70, label %71, label %78

71:                                               ; preds = %61
  %72 = load ptr, ptr %3, align 8, !tbaa !4
  %73 = getelementptr inbounds nuw %struct.V4L2Context, ptr %72, i32 0, i32 8
  %74 = load ptr, ptr %73, align 8, !tbaa !36
  %75 = load i32, ptr %5, align 4, !tbaa !9
  %76 = sext i32 %75 to i64
  %77 = getelementptr inbounds %struct.V4L2Buffer, ptr %74, i64 %76
  store ptr %77, ptr %2, align 8
  store i32 1, ptr %6, align 4
  br label %83

78:                                               ; preds = %61
  br label %79

79:                                               ; preds = %78
  %80 = load i32, ptr %5, align 4, !tbaa !9
  %81 = add nsw i32 %80, 1
  store i32 %81, ptr %5, align 4, !tbaa !9
  br label %55, !llvm.loop !42

82:                                               ; preds = %55
  store ptr null, ptr %2, align 8
  store i32 1, ptr %6, align 4
  br label %83

83:                                               ; preds = %82, %71
  call void @llvm.lifetime.end.p0(i64 4, ptr %5) #8
  call void @llvm.lifetime.end.p0(i64 4, ptr %4) #8
  %84 = load ptr, ptr %2, align 8
  ret ptr %84
}

; Function Attrs: inlinehint nounwind uwtable
define internal ptr @logger(ptr noundef %0) #3 {
  %2 = alloca ptr, align 8
  store ptr %0, ptr %2, align 8, !tbaa !4
  %3 = load ptr, ptr %2, align 8, !tbaa !4
  %4 = call ptr @ctx_to_m2mctx(ptr noundef %3)
  %5 = getelementptr inbounds nuw %struct.V4L2m2mContext, ptr %4, i32 0, i32 4
  %6 = load ptr, ptr %5, align 8, !tbaa !32
  ret ptr %6
}

; Function Attrs: nounwind uwtable
define internal i32 @v4l2_stop_encode(ptr noundef %0) #0 {
  %2 = alloca i32, align 4
  %3 = alloca ptr, align 8
  %4 = alloca %struct.v4l2_encoder_cmd, align 4
  %5 = alloca i32, align 4
  %6 = alloca i32, align 4
  store ptr %0, ptr %3, align 8, !tbaa !4
  call void @llvm.lifetime.start.p0(i64 40, ptr %4) #8
  call void @llvm.memset.p0.i64(ptr align 4 %4, i8 0, i64 40, i1 false)
  %7 = getelementptr inbounds %struct.v4l2_encoder_cmd, ptr %4, i32 0, i32 0
  store i32 1, ptr %7, align 4
  call void @llvm.lifetime.start.p0(i64 4, ptr %5) #8
  %8 = load ptr, ptr %3, align 8, !tbaa !4
  %9 = call ptr @ctx_to_m2mctx(ptr noundef %8)
  %10 = getelementptr inbounds nuw %struct.V4L2m2mContext, ptr %9, i32 0, i32 1
  %11 = load i32, ptr %10, align 8, !tbaa !17
  %12 = call i32 (i32, i64, ...) @ioctl(i32 noundef %11, i64 noundef 3223869005, ptr noundef %4) #8
  store i32 %12, ptr %5, align 4, !tbaa !9
  %13 = load i32, ptr %5, align 4, !tbaa !9
  %14 = icmp ne i32 %13, 0
  br i1 %14, label %15, label %26

15:                                               ; preds = %1
  %16 = call ptr @__errno_location() #9
  %17 = load i32, ptr %16, align 4, !tbaa !9
  %18 = icmp eq i32 %17, 25
  br i1 %18, label %19, label %22

19:                                               ; preds = %15
  %20 = load ptr, ptr %3, align 8, !tbaa !4
  %21 = call i32 @ff_v4l2_context_set_status(ptr noundef %20, i32 noundef 1074026003)
  store i32 %21, ptr %2, align 4
  store i32 1, ptr %6, align 4
  br label %27

22:                                               ; preds = %15
  %23 = call ptr @__errno_location() #9
  %24 = load i32, ptr %23, align 4, !tbaa !9
  %25 = sub nsw i32 0, %24
  store i32 %25, ptr %2, align 4
  store i32 1, ptr %6, align 4
  br label %27

26:                                               ; preds = %1
  store i32 0, ptr %2, align 4
  store i32 1, ptr %6, align 4
  br label %27

27:                                               ; preds = %26, %22, %19
  call void @llvm.lifetime.end.p0(i64 4, ptr %5) #8
  call void @llvm.lifetime.end.p0(i64 40, ptr %4) #8
  %28 = load i32, ptr %2, align 4
  ret i32 %28
}

; Function Attrs: inlinehint nounwind uwtable
define internal ptr @ctx_to_m2mctx(ptr noundef %0) #3 {
  %2 = alloca ptr, align 8
  %3 = alloca ptr, align 8
  %4 = alloca ptr, align 8
  %5 = alloca ptr, align 8
  %6 = alloca ptr, align 8
  store ptr %0, ptr %2, align 8, !tbaa !4
  %7 = load ptr, ptr %2, align 8, !tbaa !4
  %8 = getelementptr inbounds nuw %struct.V4L2Context, ptr %7, i32 0, i32 1
  %9 = load i32, ptr %8, align 8, !tbaa !11
  %10 = icmp eq i32 %9, 2
  br i1 %10, label %46, label %11

11:                                               ; preds = %1
  %12 = load ptr, ptr %2, align 8, !tbaa !4
  %13 = getelementptr inbounds nuw %struct.V4L2Context, ptr %12, i32 0, i32 1
  %14 = load i32, ptr %13, align 8, !tbaa !11
  %15 = icmp eq i32 %14, 10
  br i1 %15, label %46, label %16

16:                                               ; preds = %11
  %17 = load ptr, ptr %2, align 8, !tbaa !4
  %18 = getelementptr inbounds nuw %struct.V4L2Context, ptr %17, i32 0, i32 1
  %19 = load i32, ptr %18, align 8, !tbaa !11
  %20 = icmp eq i32 %19, 3
  br i1 %20, label %46, label %21

21:                                               ; preds = %16
  %22 = load ptr, ptr %2, align 8, !tbaa !4
  %23 = getelementptr inbounds nuw %struct.V4L2Context, ptr %22, i32 0, i32 1
  %24 = load i32, ptr %23, align 8, !tbaa !11
  %25 = icmp eq i32 %24, 8
  br i1 %25, label %46, label %26

26:                                               ; preds = %21
  %27 = load ptr, ptr %2, align 8, !tbaa !4
  %28 = getelementptr inbounds nuw %struct.V4L2Context, ptr %27, i32 0, i32 1
  %29 = load i32, ptr %28, align 8, !tbaa !11
  %30 = icmp eq i32 %29, 5
  br i1 %30, label %46, label %31

31:                                               ; preds = %26
  %32 = load ptr, ptr %2, align 8, !tbaa !4
  %33 = getelementptr inbounds nuw %struct.V4L2Context, ptr %32, i32 0, i32 1
  %34 = load i32, ptr %33, align 8, !tbaa !11
  %35 = icmp eq i32 %34, 7
  br i1 %35, label %46, label %36

36:                                               ; preds = %31
  %37 = load ptr, ptr %2, align 8, !tbaa !4
  %38 = getelementptr inbounds nuw %struct.V4L2Context, ptr %37, i32 0, i32 1
  %39 = load i32, ptr %38, align 8, !tbaa !11
  %40 = icmp eq i32 %39, 12
  br i1 %40, label %46, label %41

41:                                               ; preds = %36
  %42 = load ptr, ptr %2, align 8, !tbaa !4
  %43 = getelementptr inbounds nuw %struct.V4L2Context, ptr %42, i32 0, i32 1
  %44 = load i32, ptr %43, align 8, !tbaa !11
  %45 = icmp eq i32 %44, 14
  br i1 %45, label %46, label %51

46:                                               ; preds = %41, %36, %31, %26, %21, %16, %11, %1
  call void @llvm.lifetime.start.p0(i64 8, ptr %3) #8
  %47 = load ptr, ptr %2, align 8, !tbaa !4
  store ptr %47, ptr %3, align 8, !tbaa !4
  %48 = load ptr, ptr %3, align 8, !tbaa !4
  %49 = getelementptr inbounds i8, ptr %48, i64 -4376
  store ptr %49, ptr %4, align 8, !tbaa !27
  call void @llvm.lifetime.end.p0(i64 8, ptr %3) #8
  %50 = load ptr, ptr %4, align 8, !tbaa !27
  br label %56

51:                                               ; preds = %41
  call void @llvm.lifetime.start.p0(i64 8, ptr %5) #8
  %52 = load ptr, ptr %2, align 8, !tbaa !4
  store ptr %52, ptr %5, align 8, !tbaa !4
  %53 = load ptr, ptr %5, align 8, !tbaa !4
  %54 = getelementptr inbounds i8, ptr %53, i64 -4104
  store ptr %54, ptr %6, align 8, !tbaa !27
  call void @llvm.lifetime.end.p0(i64 8, ptr %5) #8
  %55 = load ptr, ptr %6, align 8, !tbaa !27
  br label %56

56:                                               ; preds = %51, %46
  %57 = phi ptr [ %50, %46 ], [ %55, %51 ]
  ret ptr %57
}

; Function Attrs: nounwind uwtable
define i32 @ff_v4l2_context_enqueue_frame(ptr noundef %0, ptr noundef %1) #0 {
  %3 = alloca i32, align 4
  %4 = alloca ptr, align 8
  %5 = alloca ptr, align 8
  %6 = alloca ptr, align 8
  %7 = alloca ptr, align 8
  %8 = alloca i32, align 4
  %9 = alloca i32, align 4
  store ptr %0, ptr %4, align 8, !tbaa !4
  store ptr %1, ptr %5, align 8, !tbaa !28
  call void @llvm.lifetime.start.p0(i64 8, ptr %6) #8
  %10 = load ptr, ptr %4, align 8, !tbaa !4
  %11 = call ptr @ctx_to_m2mctx(ptr noundef %10)
  store ptr %11, ptr %6, align 8, !tbaa !27
  call void @llvm.lifetime.start.p0(i64 8, ptr %7) #8
  call void @llvm.lifetime.start.p0(i64 4, ptr %8) #8
  %12 = load ptr, ptr %5, align 8, !tbaa !28
  %13 = icmp ne ptr %12, null
  br i1 %13, label %28, label %14

14:                                               ; preds = %2
  %15 = load ptr, ptr %4, align 8, !tbaa !4
  %16 = call i32 @v4l2_stop_encode(ptr noundef %15)
  store i32 %16, ptr %8, align 4, !tbaa !9
  %17 = load i32, ptr %8, align 4, !tbaa !9
  %18 = icmp ne i32 %17, 0
  br i1 %18, label %19, label %25

19:                                               ; preds = %14
  %20 = load ptr, ptr %4, align 8, !tbaa !4
  %21 = call ptr @logger(ptr noundef %20)
  %22 = load ptr, ptr %4, align 8, !tbaa !4
  %23 = getelementptr inbounds nuw %struct.V4L2Context, ptr %22, i32 0, i32 0
  %24 = load ptr, ptr %23, align 8, !tbaa !29
  call void (ptr, i32, ptr, ...) @av_log(ptr noundef %21, i32 noundef 16, ptr noundef @.str, ptr noundef %24)
  br label %25

25:                                               ; preds = %19, %14
  %26 = load ptr, ptr %6, align 8, !tbaa !27
  %27 = getelementptr inbounds nuw %struct.V4L2m2mContext, ptr %26, i32 0, i32 8
  store i32 1, ptr %27, align 8, !tbaa !30
  store i32 0, ptr %3, align 4
  store i32 1, ptr %9, align 4
  br label %45

28:                                               ; preds = %2
  %29 = load ptr, ptr %4, align 8, !tbaa !4
  %30 = call ptr @v4l2_getfree_v4l2buf(ptr noundef %29)
  store ptr %30, ptr %7, align 8, !tbaa !31
  %31 = load ptr, ptr %7, align 8, !tbaa !31
  %32 = icmp ne ptr %31, null
  br i1 %32, label %34, label %33

33:                                               ; preds = %28
  store i32 -11, ptr %3, align 4
  store i32 1, ptr %9, align 4
  br label %45

34:                                               ; preds = %28
  %35 = load ptr, ptr %5, align 8, !tbaa !28
  %36 = load ptr, ptr %7, align 8, !tbaa !31
  %37 = call i32 @ff_v4l2_buffer_avframe_to_buf(ptr noundef %35, ptr noundef %36)
  store i32 %37, ptr %8, align 4, !tbaa !9
  %38 = load i32, ptr %8, align 4, !tbaa !9
  %39 = icmp ne i32 %38, 0
  br i1 %39, label %40, label %42

40:                                               ; preds = %34
  %41 = load i32, ptr %8, align 4, !tbaa !9
  store i32 %41, ptr %3, align 4
  store i32 1, ptr %9, align 4
  br label %45

42:                                               ; preds = %34
  %43 = load ptr, ptr %7, align 8, !tbaa !31
  %44 = call i32 @ff_v4l2_buffer_enqueue(ptr noundef %43)
  store i32 %44, ptr %3, align 4
  store i32 1, ptr %9, align 4
  br label %45

45:                                               ; preds = %42, %40, %33, %25
  call void @llvm.lifetime.end.p0(i64 4, ptr %8) #8
  call void @llvm.lifetime.end.p0(i64 8, ptr %7) #8
  call void @llvm.lifetime.end.p0(i64 8, ptr %6) #8
  %46 = load i32, ptr %3, align 4
  ret i32 %46
}