; Function Attrs: nounwind uwtable
define i32 @ff_v4l2_context_enqueue_frame(ptr noundef %0, ptr noundef %1) local_unnamed_addr #0 {
  %3 = alloca i32, align 4
  %4 = alloca %struct.v4l2_encoder_cmd, align 4
  %5 = getelementptr inbounds nuw i8, ptr %0, i64 8
  %6 = load i32, ptr %5, align 8, !tbaa !4
  %switch.tableidx = add i32 %6, -2
  %7 = icmp ult i32 %switch.tableidx, 13
  br i1 %7, label %switch.lookup, label %ctx_to_m2mctx.exit

switch.lookup:                                    ; preds = %2
  %8 = zext nneg i32 %switch.tableidx to i64
  %switch.gep = getelementptr inbounds nuw [13 x i64], ptr @switch.table.ff_v4l2_context_init.34, i64 0, i64 %8
  %switch.load = load i64, ptr %switch.gep, align 8
  br label %ctx_to_m2mctx.exit

ctx_to_m2mctx.exit:                               ; preds = %2, %switch.lookup
  %.sink.i = phi i64 [ %switch.load, %switch.lookup ], [ -4104, %2 ]
  %9 = getelementptr inbounds i8, ptr %0, i64 %.sink.i
  %.not = icmp eq ptr %1, null
  br i1 %.not, label %10, label %48

10:                                               ; preds = %ctx_to_m2mctx.exit
  call void @llvm.lifetime.start.p0(i64 40, ptr nonnull %4) #8
  %11 = getelementptr inbounds nuw i8, ptr %4, i64 4
  call void @llvm.memset.p0.i64(ptr noundef nonnull align 4 dereferenceable(36) %11, i8 0, i64 36, i1 false)
  store i32 1, ptr %4, align 4
  %switch.tableidx32 = add i32 %6, -2
  %12 = icmp ult i32 %switch.tableidx32, 13
  br i1 %12, label %switch.lookup31, label %ctx_to_m2mctx.exit.i

switch.lookup31:                                  ; preds = %10
  %13 = zext nneg i32 %switch.tableidx32 to i64
  %switch.gep33 = getelementptr inbounds nuw [13 x i64], ptr @switch.table.ff_v4l2_context_init.34, i64 0, i64 %13
  %switch.load34 = load i64, ptr %switch.gep33, align 8
  br label %ctx_to_m2mctx.exit.i

ctx_to_m2mctx.exit.i:                             ; preds = %10, %switch.lookup31
  %.sink.i.i = phi i64 [ %switch.load34, %switch.lookup31 ], [ -4104, %10 ]
  %14 = getelementptr inbounds i8, ptr %0, i64 %.sink.i.i
  %15 = getelementptr inbounds nuw i8, ptr %14, i64 4096
  %16 = load i32, ptr %15, align 8, !tbaa !15
  %17 = call i32 (i32, i64, ...) @ioctl(i32 noundef %16, i64 noundef 3223869005, ptr noundef nonnull %4) #8
  %.not.i = icmp eq i32 %17, 0
  br i1 %.not.i, label %v4l2_stop_encode.exit.thread, label %18

v4l2_stop_encode.exit.thread:                     ; preds = %ctx_to_m2mctx.exit.i
  call void @llvm.lifetime.end.p0(i64 40, ptr nonnull %4) #8
  br label %46

18:                                               ; preds = %ctx_to_m2mctx.exit.i
  %19 = tail call ptr @__errno_location() #9
  %20 = load i32, ptr %19, align 4, !tbaa !14
  %21 = icmp eq i32 %20, 25
  br i1 %21, label %22, label %36

22:                                               ; preds = %18
  call void @llvm.lifetime.start.p0(i64 4, ptr nonnull %3) #8
  %23 = load i32, ptr %5, align 8, !tbaa !4
  store i32 %23, ptr %3, align 4, !tbaa !14
  %switch.tableidx36 = add i32 %23, -2
  %24 = icmp ult i32 %switch.tableidx36, 13
  br i1 %24, label %switch.lookup35, label %ctx_to_m2mctx.exit.i.i

switch.lookup35:                                  ; preds = %22
  %25 = zext nneg i32 %switch.tableidx36 to i64
  %switch.gep37 = getelementptr inbounds nuw [13 x i64], ptr @switch.table.ff_v4l2_context_init.34, i64 0, i64 %25
  %switch.load38 = load i64, ptr %switch.gep37, align 8
  br label %ctx_to_m2mctx.exit.i.i

ctx_to_m2mctx.exit.i.i:                           ; preds = %22, %switch.lookup35
  %.sink.i.i.i = phi i64 [ %switch.load38, %switch.lookup35 ], [ -4104, %22 ]
  %26 = getelementptr inbounds i8, ptr %0, i64 %.sink.i.i.i
  %27 = getelementptr inbounds nuw i8, ptr %26, i64 4096
  %28 = load i32, ptr %27, align 8, !tbaa !15
  %29 = call i32 (i32, i64, ...) @ioctl(i32 noundef %28, i64 noundef 1074026003, ptr noundef nonnull %3) #8
  %30 = icmp slt i32 %29, 0
  br i1 %30, label %31, label %34

31:                                               ; preds = %ctx_to_m2mctx.exit.i.i
  %32 = load i32, ptr %19, align 4, !tbaa !14
  %33 = sub nsw i32 0, %32
  br label %ff_v4l2_context_set_status.exit.i

34:                                               ; preds = %ctx_to_m2mctx.exit.i.i
  %35 = getelementptr inbounds nuw i8, ptr %0, i64 260
  store i32 0, ptr %35, align 4, !tbaa !24
  br label %ff_v4l2_context_set_status.exit.i

ff_v4l2_context_set_status.exit.i:                ; preds = %34, %31
  %.0.i.i = phi i32 [ %33, %31 ], [ 0, %34 ]
  call void @llvm.lifetime.end.p0(i64 4, ptr nonnull %3) #8
  br label %v4l2_stop_encode.exit

36:                                               ; preds = %18
  %37 = sub nsw i32 0, %20
  br label %v4l2_stop_encode.exit

v4l2_stop_encode.exit:                            ; preds = %ff_v4l2_context_set_status.exit.i, %36
  %.0.i = phi i32 [ %.0.i.i, %ff_v4l2_context_set_status.exit.i ], [ %37, %36 ]
  call void @llvm.lifetime.end.p0(i64 40, ptr nonnull %4) #8
  %.not17 = icmp eq i32 %.0.i, 0
  br i1 %.not17, label %46, label %38

38:                                               ; preds = %v4l2_stop_encode.exit
  %39 = load i32, ptr %5, align 8, !tbaa !4
  %switch.tableidx40 = add i32 %39, -2
  %40 = icmp ult i32 %switch.tableidx40, 13
  br i1 %40, label %switch.lookup39, label %logger.exit

switch.lookup39:                                  ; preds = %38
  %41 = zext nneg i32 %switch.tableidx40 to i64
  %switch.gep41 = getelementptr inbounds nuw [13 x i64], ptr @switch.table.ff_v4l2_context_init.34, i64 0, i64 %41
  %switch.load42 = load i64, ptr %switch.gep41, align 8
  br label %logger.exit

logger.exit:                                      ; preds = %38, %switch.lookup39
  %.sink.i.i21 = phi i64 [ %switch.load42, %switch.lookup39 ], [ -4104, %38 ]
  %42 = getelementptr inbounds i8, ptr %0, i64 %.sink.i.i21
  %43 = getelementptr inbounds nuw i8, ptr %42, i64 4648
  %44 = load ptr, ptr %43, align 8, !tbaa !25
  %45 = load ptr, ptr %0, align 8, !tbaa !26
  call void (ptr, i32, ptr, ...) @av_log(ptr noundef %44, i32 noundef 16, ptr noundef nonnull @.str, ptr noundef %45) #8
  br label %46

46:                                               ; preds = %v4l2_stop_encode.exit.thread, %logger.exit, %v4l2_stop_encode.exit
  %47 = getelementptr inbounds nuw i8, ptr %9, i64 4696
  store i32 1, ptr %47, align 8, !tbaa !27
  br label %v4l2_getfree_v4l2buf.exit.thread

48:                                               ; preds = %ctx_to_m2mctx.exit
  switch i32 %6, label %.loopexit.i [
    i32 2, label %.preheader
    i32 10, label %.preheader
    i32 3, label %.preheader
    i32 8, label %.preheader
    i32 5, label %.preheader
    i32 7, label %.preheader
    i32 12, label %.preheader
    i32 14, label %.preheader
  ]

.preheader:                                       ; preds = %48, %48, %48, %48, %48, %48, %48, %48
  br label %49

49:                                               ; preds = %.preheader, %49
  %50 = tail call fastcc ptr @v4l2_dequeue_v4l2buf(ptr noundef nonnull %0, i32 noundef 0)
  %.not.i22 = icmp eq ptr %50, null
  br i1 %.not.i22, label %.loopexit.i, label %49, !llvm.loop !28

.loopexit.i:                                      ; preds = %49, %48
  %51 = getelementptr inbounds nuw i8, ptr %0, i64 256
  %52 = load i32, ptr %51, align 8, !tbaa !30
  %53 = icmp sgt i32 %52, 0
  br i1 %53, label %.lr.ph.i, label %v4l2_getfree_v4l2buf.exit.thread

.lr.ph.i:                                         ; preds = %.loopexit.i
  %54 = getelementptr inbounds nuw i8, ptr %0, i64 248
  %55 = load ptr, ptr %54, align 8, !tbaa !31
  %wide.trip.count.i = zext nneg i32 %52 to i64
  br label %57

56:                                               ; preds = %57
  %indvars.iv.next.i = add nuw nsw i64 %indvars.iv.i, 1
  %exitcond.not.i = icmp eq i64 %indvars.iv.next.i, %wide.trip.count.i
  br i1 %exitcond.not.i, label %v4l2_getfree_v4l2buf.exit.thread, label %57, !llvm.loop !32

57:                                               ; preds = %56, %.lr.ph.i
  %indvars.iv.i = phi i64 [ 0, %.lr.ph.i ], [ %indvars.iv.next.i, %56 ]
  %58 = getelementptr inbounds nuw %struct.V4L2Buffer, ptr %55, i64 %indvars.iv.i
  %59 = getelementptr inbounds nuw i8, ptr %58, i64 828
  %60 = load i32, ptr %59, align 4, !tbaa !33
  %61 = icmp eq i32 %60, 0
  br i1 %61, label %v4l2_getfree_v4l2buf.exit, label %56

v4l2_getfree_v4l2buf.exit:                        ; preds = %57
  %62 = tail call i32 @ff_v4l2_buffer_avframe_to_buf(ptr noundef nonnull %1, ptr noundef nonnull %58) #8
  %.not19 = icmp eq i32 %62, 0
  br i1 %.not19, label %63, label %v4l2_getfree_v4l2buf.exit.thread

63:                                               ; preds = %v4l2_getfree_v4l2buf.exit
  %64 = tail call i32 @ff_v4l2_buffer_enqueue(ptr noundef nonnull %58) #8
  br label %v4l2_getfree_v4l2buf.exit.thread

v4l2_getfree_v4l2buf.exit.thread:                 ; preds = %56, %.loopexit.i, %v4l2_getfree_v4l2buf.exit, %63, %46
  %.0 = phi i32 [ %64, %63 ], [ 0, %46 ], [ %62, %v4l2_getfree_v4l2buf.exit ], [ -11, %.loopexit.i ], [ -11, %56 ]
  ret i32 %.0
}